target datalayout = "e-m:e-p270:32:32-p271:32:32-p272:64:64-i64:64-i128:128-f80:128-n8:16:32:64-S128"
target triple = "x86_64-pc-linux-gnu"

%struct.test_fixture = type { ptr, ptr, ptr, i32, i32, ptr }

@.str.14 = private unnamed_addr constant [34 x i8] c"../openssl/test/cmp_client_test.c\00", align 1
@.str.46 = private unnamed_addr constant [28 x i8] c"test_try_certreq_poll_abort\00", align 1
@.str.65 = private unnamed_addr constant [18 x i8] c"fixture->expected\00", align 1
@.str.79 = private unnamed_addr constant [3 x i8] c"-1\00", align 1
@.str.80 = private unnamed_addr constant [52 x i8] c"OSSL_CMP_try_certreq(ctx, TYPE, NULL, &check_after)\00", align 1
@.str.81 = private unnamed_addr constant [31 x i8] c"OSSL_CMP_CTX_get0_newCert(ctx)\00", align 1
@.str.82 = private unnamed_addr constant [5 x i8] c"NULL\00", align 1
@.str.85 = private unnamed_addr constant [43 x i8] c"OSSL_CMP_try_certreq(ctx, -1 , NULL, NULL)\00", align 1
@.str.86 = private unnamed_addr constant [44 x i8] c"OSSL_CMP_CTX_get0_newCert(fixture->cmp_ctx)\00", align 1

; Function Attrs: inlinehint nounwind uwtable
define internal ptr @ossl_check_X509_sk_type(ptr noundef %0) #3 {
  %2 = alloca ptr, align 8
  store ptr %0, ptr %2, align 8, !tbaa !32
  %3 = load ptr, ptr %2, align 8, !tbaa !32
  ret ptr %3
}

; Function Attrs: nounwind uwtable
define internal void @tear_down(ptr noundef %0) #0 {
  %2 = alloca ptr, align 8
  store ptr %0, ptr %2, align 8, !tbaa !17
  %3 = load ptr, ptr %2, align 8, !tbaa !17
  %4 = getelementptr inbounds nuw %struct.test_fixture, ptr %3, i32 0, i32 1
  %5 = load ptr, ptr %4, align 8, !tbaa !29
  call void @OSSL_CMP_CTX_free(ptr noundef %5)
  %6 = load ptr, ptr %2, align 8, !tbaa !17
  %7 = getelementptr inbounds nuw %struct.test_fixture, ptr %6, i32 0, i32 2
  %8 = load ptr, ptr %7, align 8, !tbaa !21
  call void @ossl_cmp_mock_srv_free(ptr noundef %8)
  %9 = load ptr, ptr %2, align 8, !tbaa !17
  %10 = getelementptr inbounds nuw %struct.test_fixture, ptr %9, i32 0, i32 5
  %11 = load ptr, ptr %10, align 8, !tbaa !28
  %12 = call ptr @ossl_check_X509_sk_type(ptr noundef %11)
  call void @OPENSSL_sk_free(ptr noundef %12)
  %13 = load ptr, ptr %2, align 8, !tbaa !17
  call void @CRYPTO_free(ptr noundef %13, ptr noundef @.str.14, i32 noundef 51)
  ret void
}

; Function Attrs: nounwind uwtable
define internal i32 @execute_try_certreq_poll_abort_test(ptr noundef %0) #0 {
  %2 = alloca ptr, align 8
  %3 = alloca ptr, align 8
  %4 = alloca i32, align 4
  %5 = alloca i32, align 4
  %6 = alloca i32, align 4
  store ptr %0, ptr %2, align 8, !tbaa !17
  call void @llvm.lifetime.start.p0(i64 8, ptr %3) #4
  %7 = load ptr, ptr %2, align 8, !tbaa !17
  %8 = getelementptr inbounds nuw %struct.test_fixture, ptr %7, i32 0, i32 1
  %9 = load ptr, ptr %8, align 8, !tbaa !29
  store ptr %9, ptr %3, align 8, !tbaa !30
  call void @llvm.lifetime.start.p0(i64 4, ptr %4) #4
  call void @llvm.lifetime.start.p0(i64 4, ptr %5) #4
  store i32 99, ptr %5, align 4, !tbaa !19
  call void @llvm.lifetime.start.p0(i64 4, ptr %6) #4
  store i32 2, ptr %6, align 4, !tbaa !19
  %10 = load ptr, ptr %2, align 8, !tbaa !17
  %11 = getelementptr inbounds nuw %struct.test_fixture, ptr %10, i32 0, i32 2
  %12 = load ptr, ptr %11, align 8, !tbaa !21
  %13 = call i32 @ossl_cmp_mock_srv_set_pollCount(ptr noundef %12, i32 noundef 3)
  %14 = load ptr, ptr %2, align 8, !tbaa !17
  %15 = getelementptr inbounds nuw %struct.test_fixture, ptr %14, i32 0, i32 2
  %16 = load ptr, ptr %15, align 8, !tbaa !21
  %17 = call i32 @ossl_cmp_mock_srv_set_checkAfterTime(ptr noundef %16, i32 noundef 99)
  %18 = load ptr, ptr %3, align 8, !tbaa !30
  %19 = call i32 @OSSL_CMP_try_certreq(ptr noundef %18, i32 noundef 2, ptr noundef null, ptr noundef %4)
  %20 = call i32 @test_int_eq(ptr noundef @.str.14, i32 noundef 403, ptr noundef @.str.79, ptr noundef @.str.80, i32 noundef -1, i32 noundef %19)
  %21 = icmp ne i32 %20, 0
  br i1 %21, label %22, label %45

22:                                               ; preds = %1
  %23 = load i32, ptr %4, align 4, !tbaa !19
  %24 = icmp eq i32 %23, 99
  br i1 %24, label %25, label %45

25:                                               ; preds = %22
  %26 = load ptr, ptr %3, align 8, !tbaa !30
  %27 = call ptr @OSSL_CMP_CTX_get0_newCert(ptr noundef %26)
  %28 = call i32 @test_ptr_eq(ptr noundef @.str.14, i32 noundef 405, ptr noundef @.str.81, ptr noundef @.str.82, ptr noundef %27, ptr noundef null)
  %29 = icmp ne i32 %28, 0
  br i1 %29, label %30, label %45

30:                                               ; preds = %25
  %31 = load ptr, ptr %2, align 8, !tbaa !17
  %32 = getelementptr inbounds nuw %struct.test_fixture, ptr %31, i32 0, i32 4
  %33 = load i32, ptr %32, align 4, !tbaa !26
  %34 = load ptr, ptr %3, align 8, !tbaa !30
  %35 = call i32 @OSSL_CMP_try_certreq(ptr noundef %34, i32 noundef -1, ptr noundef null, ptr noundef null)
  %36 = call i32 @test_int_eq(ptr noundef @.str.14, i32 noundef 407, ptr noundef @.str.65, ptr noundef @.str.85, i32 noundef %33, i32 noundef %35)
  %37 = icmp ne i32 %36, 0
  br i1 %37, label %38, label %45

38:                                               ; preds = %30
  %39 = load ptr, ptr %2, align 8, !tbaa !17
  %40 = getelementptr inbounds nuw %struct.test_fixture, ptr %39, i32 0, i32 1
  %41 = load ptr, ptr %40, align 8, !tbaa !29
  %42 = call ptr @OSSL_CMP_CTX_get0_newCert(ptr noundef %41)
  %43 = call i32 @test_ptr_eq(ptr noundef @.str.14, i32 noundef 408, ptr noundef @.str.86, ptr noundef @.str.82, ptr noundef %42, ptr noundef null)
  %44 = icmp ne i32 %43, 0
  br label %45

45:                                               ; preds = %38, %30, %25, %22, %1
  %46 = phi i1 [ false, %30 ], [ false, %25 ], [ false, %22 ], [ false, %1 ], [ %44, %38 ]
  %47 = zext i1 %46 to i32
  call void @llvm.lifetime.end.p0(i64 4, ptr %6) #4
  call void @llvm.lifetime.end.p0(i64 4, ptr %5) #4
  call void @llvm.lifetime.end.p0(i64 4, ptr %4) #4
  call void @llvm.lifetime.end.p0(i64 8, ptr %3) #4
  ret i32 %47
}

; Function Attrs: nounwind uwtable
define internal i32 @test_try_certreq_poll_abort() #0 {
  %1 = alloca i32, align 4
  %2 = alloca ptr, align 8
  %3 = alloca i32, align 4
  %4 = alloca i32, align 4
  call void @llvm.lifetime.start.p0(i64 8, ptr %2) #4
  %5 = call ptr @set_up(ptr noundef @.str.46)
  store ptr %5, ptr %2, align 8, !tbaa !17
  call void @llvm.lifetime.start.p0(i64 4, ptr %3) #4
  store i32 0, ptr %3, align 4, !tbaa !19
  %6 = load ptr, ptr %2, align 8, !tbaa !17
  %7 = icmp eq ptr %6, null
  br i1 %7, label %8, label %9

8:                                                ; preds = %0
  store i32 0, ptr %1, align 4
  store i32 1, ptr %4, align 4
  br label %20

9:                                                ; preds = %0
  %10 = load ptr, ptr %2, align 8, !tbaa !17
  %11 = getelementptr inbounds nuw %struct.test_fixture, ptr %10, i32 0, i32 4
  store i32 1, ptr %11, align 4, !tbaa !26
  %12 = load ptr, ptr %2, align 8, !tbaa !17
  %13 = icmp ne ptr %12, null
  br i1 %13, label %14, label %18

14:                                               ; preds = %9
  %15 = load ptr, ptr %2, align 8, !tbaa !17
  %16 = call i32 @execute_try_certreq_poll_abort_test(ptr noundef %15)
  store i32 %16, ptr %3, align 4, !tbaa !19
  %17 = load ptr, ptr %2, align 8, !tbaa !17
  call void @tear_down(ptr noundef %17)
  br label %18

18:                                               ; preds = %14, %9
  %19 = load i32, ptr %3, align 4, !tbaa !19
  store i32 %19, ptr %1, align 4
  store i32 1, ptr %4, align 4
  br label %20

20:                                               ; preds = %18, %8
  call void @llvm.lifetime.end.p0(i64 4, ptr %3) #4
  call void @llvm.lifetime.end.p0(i64 8, ptr %2) #4
  %21 = load i32, ptr %1, align 4
  ret i32 %21
}