; Function Attrs: nounwind uwtable
define internal range(i32 0, 2) i32 @test_try_certreq_poll_abort() #0 {
  %1 = alloca i32, align 4
  %2 = tail call fastcc ptr @set_up(ptr noundef nonnull @.str.46)
  %3 = icmp eq ptr %2, null
  br i1 %3, label %36, label %4

4:                                                ; preds = %0
  %5 = getelementptr inbounds nuw i8, ptr %2, i64 28
  store i32 1, ptr %5, align 4, !tbaa !17
  %6 = getelementptr inbounds nuw i8, ptr %2, i64 8
  %7 = load ptr, ptr %6, align 8, !tbaa !23
  call void @llvm.lifetime.start.p0(i64 4, ptr nonnull %1) #4
  %8 = getelementptr inbounds nuw i8, ptr %2, i64 16
  %9 = load ptr, ptr %8, align 8, !tbaa !24
  %10 = tail call i32 @ossl_cmp_mock_srv_set_pollCount(ptr noundef %9, i32 noundef 3) #4
  %11 = load ptr, ptr %8, align 8, !tbaa !24
  %12 = tail call i32 @ossl_cmp_mock_srv_set_checkAfterTime(ptr noundef %11, i32 noundef 99) #4
  %13 = call i32 @OSSL_CMP_try_certreq(ptr noundef %7, i32 noundef 2, ptr noundef null, ptr noundef nonnull %1) #4
  %14 = call i32 @test_int_eq(ptr noundef nonnull @.str.14, i32 noundef 403, ptr noundef nonnull @.str.79, ptr noundef nonnull @.str.80, i32 noundef -1, i32 noundef %13) #4
  %15 = icmp ne i32 %14, 0
  %16 = load i32, ptr %1, align 4
  %17 = icmp eq i32 %16, 99
  %or.cond.i = select i1 %15, i1 %17, i1 false
  br i1 %or.cond.i, label %18, label %execute_try_certreq_poll_abort_test.exit

18:                                               ; preds = %4
  %19 = call ptr @OSSL_CMP_CTX_get0_newCert(ptr noundef %7) #4
  %20 = call i32 @test_ptr_eq(ptr noundef nonnull @.str.14, i32 noundef 405, ptr noundef nonnull @.str.81, ptr noundef nonnull @.str.82, ptr noundef %19, ptr noundef null) #4
  %.not.i = icmp eq i32 %20, 0
  br i1 %.not.i, label %execute_try_certreq_poll_abort_test.exit, label %21

21:                                               ; preds = %18
  %22 = load i32, ptr %5, align 4, !tbaa !17
  %23 = call i32 @OSSL_CMP_try_certreq(ptr noundef %7, i32 noundef -1, ptr noundef null, ptr noundef null) #4
  %24 = call i32 @test_int_eq(ptr noundef nonnull @.str.14, i32 noundef 407, ptr noundef nonnull @.str.65, ptr noundef nonnull @.str.85, i32 noundef %22, i32 noundef %23) #4
  %.not9.i = icmp eq i32 %24, 0
  br i1 %.not9.i, label %execute_try_certreq_poll_abort_test.exit, label %25

25:                                               ; preds = %21
  %26 = load ptr, ptr %6, align 8, !tbaa !23
  %27 = call ptr @OSSL_CMP_CTX_get0_newCert(ptr noundef %26) #4
  %28 = call i32 @test_ptr_eq(ptr noundef nonnull @.str.14, i32 noundef 408, ptr noundef nonnull @.str.86, ptr noundef nonnull @.str.82, ptr noundef %27, ptr noundef null) #4
  %29 = icmp ne i32 %28, 0
  %30 = zext i1 %29 to i32
  br label %execute_try_certreq_poll_abort_test.exit

execute_try_certreq_poll_abort_test.exit:         ; preds = %4, %18, %21, %25
  %31 = phi i32 [ 0, %21 ], [ 0, %18 ], [ 0, %4 ], [ %30, %25 ]
  call void @llvm.lifetime.end.p0(i64 4, ptr nonnull %1) #4
  %32 = load ptr, ptr %6, align 8, !tbaa !23
  call void @OSSL_CMP_CTX_free(ptr noundef %32) #4
  %33 = load ptr, ptr %8, align 8, !tbaa !24
  call void @ossl_cmp_mock_srv_free(ptr noundef %33) #4
  %34 = getelementptr inbounds nuw i8, ptr %2, i64 32
  %35 = load ptr, ptr %34, align 8, !tbaa !25
  call void @OPENSSL_sk_free(ptr noundef %35) #4
  call void @CRYPTO_free(ptr noundef nonnull %2, ptr noundef nonnull @.str.14, i32 noundef 51) #4
  br label %36

36:                                               ; preds = %0, %execute_try_certreq_poll_abort_test.exit
  %.06 = phi i32 [ %31, %execute_try_certreq_poll_abort_test.exit ], [ 0, %0 ]
  ret i32 %.06
}